ARM GAS  C:\Users\DELL\AppData\Local\Temp\ccaYVe7z.s 			page 1


   1              		.cpu cortex-m3
   2              		.eabi_attribute 20, 1
   3              		.eabi_attribute 21, 1
   4              		.eabi_attribute 23, 3
   5              		.eabi_attribute 24, 1
   6              		.eabi_attribute 25, 1
   7              		.eabi_attribute 26, 1
   8              		.eabi_attribute 30, 1
   9              		.eabi_attribute 34, 1
  10              		.eabi_attribute 18, 4
  11              		.file	"main.c"
  12              		.text
  13              	.Ltext0:
  14              		.cfi_sections	.debug_frame
  15              		.section	.text.MX_GPIO_Init,"ax",%progbits
  16              		.align	1
  17              		.arch armv7-m
  18              		.syntax unified
  19              		.thumb
  20              		.thumb_func
  21              		.fpu softvfp
  23              	MX_GPIO_Init:
  24              	.LFB68:
  25              		.file 1 "Src/main.c"
   1:Src/main.c    **** 
   2:Src/main.c    **** #include "main.h"
   3:Src/main.c    **** #include "ili9341.h"
   4:Src/main.c    **** 
   5:Src/main.c    **** void SystemClock_Config(void);
   6:Src/main.c    **** static void MX_GPIO_Init(void);
   7:Src/main.c    **** 
   8:Src/main.c    **** int main(void)
   9:Src/main.c    **** {
  10:Src/main.c    **** 
  11:Src/main.c    ****   HAL_Init();
  12:Src/main.c    ****   SystemClock_Config();
  13:Src/main.c    ****   MX_GPIO_Init();
  14:Src/main.c    ****   ili9341_Init();
  15:Src/main.c    ****   
  16:Src/main.c    ****   
  17:Src/main.c    ****   while (1)
  18:Src/main.c    ****   {
  19:Src/main.c    ****    
  20:Src/main.c    ****   }
  21:Src/main.c    **** }
  22:Src/main.c    **** 
  23:Src/main.c    **** void SystemClock_Config(void)
  24:Src/main.c    **** {
  25:Src/main.c    ****   RCC_OscInitTypeDef RCC_OscInitStruct = {0};
  26:Src/main.c    ****   RCC_ClkInitTypeDef RCC_ClkInitStruct = {0};
  27:Src/main.c    **** 
  28:Src/main.c    ****   /** Initializes the CPU, AHB and APB busses clocks 
  29:Src/main.c    ****   */
  30:Src/main.c    ****   RCC_OscInitStruct.OscillatorType = RCC_OSCILLATORTYPE_HSI;
  31:Src/main.c    ****   RCC_OscInitStruct.HSIState = RCC_HSI_ON;
  32:Src/main.c    ****   RCC_OscInitStruct.HSICalibrationValue = RCC_HSICALIBRATION_DEFAULT;
  33:Src/main.c    ****   RCC_OscInitStruct.PLL.PLLState = RCC_PLL_NONE;
ARM GAS  C:\Users\DELL\AppData\Local\Temp\ccaYVe7z.s 			page 2


  34:Src/main.c    ****   if (HAL_RCC_OscConfig(&RCC_OscInitStruct) != HAL_OK)
  35:Src/main.c    ****   {
  36:Src/main.c    ****     Error_Handler();
  37:Src/main.c    ****   }
  38:Src/main.c    ****   /** Initializes the CPU, AHB and APB busses clocks 
  39:Src/main.c    ****   */
  40:Src/main.c    ****   RCC_ClkInitStruct.ClockType = RCC_CLOCKTYPE_HCLK|RCC_CLOCKTYPE_SYSCLK
  41:Src/main.c    ****                               |RCC_CLOCKTYPE_PCLK1|RCC_CLOCKTYPE_PCLK2;
  42:Src/main.c    ****   RCC_ClkInitStruct.SYSCLKSource = RCC_SYSCLKSOURCE_HSI;
  43:Src/main.c    ****   RCC_ClkInitStruct.AHBCLKDivider = RCC_SYSCLK_DIV1;
  44:Src/main.c    ****   RCC_ClkInitStruct.APB1CLKDivider = RCC_HCLK_DIV1;
  45:Src/main.c    ****   RCC_ClkInitStruct.APB2CLKDivider = RCC_HCLK_DIV1;
  46:Src/main.c    **** 
  47:Src/main.c    ****   if (HAL_RCC_ClockConfig(&RCC_ClkInitStruct, FLASH_LATENCY_0) != HAL_OK)
  48:Src/main.c    ****   {
  49:Src/main.c    ****     Error_Handler();
  50:Src/main.c    ****   }
  51:Src/main.c    **** }
  52:Src/main.c    **** 
  53:Src/main.c    **** /**
  54:Src/main.c    ****   * @brief GPIO Initialization Function
  55:Src/main.c    ****   * @param None
  56:Src/main.c    ****   * @retval None
  57:Src/main.c    ****   */
  58:Src/main.c    **** static void MX_GPIO_Init(void)
  59:Src/main.c    **** {
  26              		.loc 1 59 1 view -0
  27              		.cfi_startproc
  28              		@ args = 0, pretend = 0, frame = 16
  29              		@ frame_needed = 0, uses_anonymous_args = 0
  30              		@ link register save eliminated.
  31 0000 84B0     		sub	sp, sp, #16
  32              	.LCFI0:
  33              		.cfi_def_cfa_offset 16
  60:Src/main.c    **** 
  61:Src/main.c    ****   /* GPIO Ports Clock Enable */
  62:Src/main.c    ****   __HAL_RCC_GPIOC_CLK_ENABLE();
  34              		.loc 1 62 3 view .LVU1
  35              	.LBB2:
  36              		.loc 1 62 3 view .LVU2
  37              		.loc 1 62 3 view .LVU3
  38 0002 134B     		ldr	r3, .L3
  39 0004 9A69     		ldr	r2, [r3, #24]
  40 0006 42F01002 		orr	r2, r2, #16
  41 000a 9A61     		str	r2, [r3, #24]
  42              		.loc 1 62 3 view .LVU4
  43 000c 9A69     		ldr	r2, [r3, #24]
  44 000e 02F01002 		and	r2, r2, #16
  45 0012 0092     		str	r2, [sp]
  46              		.loc 1 62 3 view .LVU5
  47 0014 009A     		ldr	r2, [sp]
  48              	.LBE2:
  49              		.loc 1 62 3 view .LVU6
  63:Src/main.c    ****   __HAL_RCC_GPIOD_CLK_ENABLE();
  50              		.loc 1 63 3 view .LVU7
  51              	.LBB3:
  52              		.loc 1 63 3 view .LVU8
ARM GAS  C:\Users\DELL\AppData\Local\Temp\ccaYVe7z.s 			page 3


  53              		.loc 1 63 3 view .LVU9
  54 0016 9A69     		ldr	r2, [r3, #24]
  55 0018 42F02002 		orr	r2, r2, #32
  56 001c 9A61     		str	r2, [r3, #24]
  57              		.loc 1 63 3 view .LVU10
  58 001e 9A69     		ldr	r2, [r3, #24]
  59 0020 02F02002 		and	r2, r2, #32
  60 0024 0192     		str	r2, [sp, #4]
  61              		.loc 1 63 3 view .LVU11
  62 0026 019A     		ldr	r2, [sp, #4]
  63              	.LBE3:
  64              		.loc 1 63 3 view .LVU12
  64:Src/main.c    ****   __HAL_RCC_GPIOA_CLK_ENABLE();
  65              		.loc 1 64 3 view .LVU13
  66              	.LBB4:
  67              		.loc 1 64 3 view .LVU14
  68              		.loc 1 64 3 view .LVU15
  69 0028 9A69     		ldr	r2, [r3, #24]
  70 002a 42F00402 		orr	r2, r2, #4
  71 002e 9A61     		str	r2, [r3, #24]
  72              		.loc 1 64 3 view .LVU16
  73 0030 9A69     		ldr	r2, [r3, #24]
  74 0032 02F00402 		and	r2, r2, #4
  75 0036 0292     		str	r2, [sp, #8]
  76              		.loc 1 64 3 view .LVU17
  77 0038 029A     		ldr	r2, [sp, #8]
  78              	.LBE4:
  79              		.loc 1 64 3 view .LVU18
  65:Src/main.c    ****   __HAL_RCC_GPIOB_CLK_ENABLE();
  80              		.loc 1 65 3 view .LVU19
  81              	.LBB5:
  82              		.loc 1 65 3 view .LVU20
  83              		.loc 1 65 3 view .LVU21
  84 003a 9A69     		ldr	r2, [r3, #24]
  85 003c 42F00802 		orr	r2, r2, #8
  86 0040 9A61     		str	r2, [r3, #24]
  87              		.loc 1 65 3 view .LVU22
  88 0042 9B69     		ldr	r3, [r3, #24]
  89 0044 03F00803 		and	r3, r3, #8
  90 0048 0393     		str	r3, [sp, #12]
  91              		.loc 1 65 3 view .LVU23
  92 004a 039B     		ldr	r3, [sp, #12]
  93              	.LBE5:
  94              		.loc 1 65 3 view .LVU24
  66:Src/main.c    **** 
  67:Src/main.c    **** }
  95              		.loc 1 67 1 is_stmt 0 view .LVU25
  96 004c 04B0     		add	sp, sp, #16
  97              	.LCFI1:
  98              		.cfi_def_cfa_offset 0
  99              		@ sp needed
 100 004e 7047     		bx	lr
 101              	.L4:
 102              		.align	2
 103              	.L3:
 104 0050 00100240 		.word	1073876992
 105              		.cfi_endproc
ARM GAS  C:\Users\DELL\AppData\Local\Temp\ccaYVe7z.s 			page 4


 106              	.LFE68:
 108              		.section	.text.SystemClock_Config,"ax",%progbits
 109              		.align	1
 110              		.global	SystemClock_Config
 111              		.syntax unified
 112              		.thumb
 113              		.thumb_func
 114              		.fpu softvfp
 116              	SystemClock_Config:
 117              	.LFB67:
  24:Src/main.c    ****   RCC_OscInitTypeDef RCC_OscInitStruct = {0};
 118              		.loc 1 24 1 is_stmt 1 view -0
 119              		.cfi_startproc
 120              		@ args = 0, pretend = 0, frame = 64
 121              		@ frame_needed = 0, uses_anonymous_args = 0
 122 0000 10B5     		push	{r4, lr}
 123              	.LCFI2:
 124              		.cfi_def_cfa_offset 8
 125              		.cfi_offset 4, -8
 126              		.cfi_offset 14, -4
 127 0002 90B0     		sub	sp, sp, #64
 128              	.LCFI3:
 129              		.cfi_def_cfa_offset 72
  25:Src/main.c    ****   RCC_ClkInitTypeDef RCC_ClkInitStruct = {0};
 130              		.loc 1 25 3 view .LVU27
  25:Src/main.c    ****   RCC_ClkInitTypeDef RCC_ClkInitStruct = {0};
 131              		.loc 1 25 22 is_stmt 0 view .LVU28
 132 0004 2422     		movs	r2, #36
 133 0006 0021     		movs	r1, #0
 134 0008 07A8     		add	r0, sp, #28
 135 000a FFF7FEFF 		bl	memset
 136              	.LVL0:
  26:Src/main.c    **** 
 137              		.loc 1 26 3 is_stmt 1 view .LVU29
  26:Src/main.c    **** 
 138              		.loc 1 26 22 is_stmt 0 view .LVU30
 139 000e 0024     		movs	r4, #0
 140 0010 0194     		str	r4, [sp, #4]
 141 0012 0294     		str	r4, [sp, #8]
 142 0014 0394     		str	r4, [sp, #12]
 143 0016 0494     		str	r4, [sp, #16]
 144 0018 0594     		str	r4, [sp, #20]
  30:Src/main.c    ****   RCC_OscInitStruct.HSIState = RCC_HSI_ON;
 145              		.loc 1 30 3 is_stmt 1 view .LVU31
  30:Src/main.c    ****   RCC_OscInitStruct.HSIState = RCC_HSI_ON;
 146              		.loc 1 30 36 is_stmt 0 view .LVU32
 147 001a 0223     		movs	r3, #2
 148 001c 0693     		str	r3, [sp, #24]
  31:Src/main.c    ****   RCC_OscInitStruct.HSICalibrationValue = RCC_HSICALIBRATION_DEFAULT;
 149              		.loc 1 31 3 is_stmt 1 view .LVU33
  31:Src/main.c    ****   RCC_OscInitStruct.HSICalibrationValue = RCC_HSICALIBRATION_DEFAULT;
 150              		.loc 1 31 30 is_stmt 0 view .LVU34
 151 001e 0123     		movs	r3, #1
 152 0020 0A93     		str	r3, [sp, #40]
  32:Src/main.c    ****   RCC_OscInitStruct.PLL.PLLState = RCC_PLL_NONE;
 153              		.loc 1 32 3 is_stmt 1 view .LVU35
  32:Src/main.c    ****   RCC_OscInitStruct.PLL.PLLState = RCC_PLL_NONE;
ARM GAS  C:\Users\DELL\AppData\Local\Temp\ccaYVe7z.s 			page 5


 154              		.loc 1 32 41 is_stmt 0 view .LVU36
 155 0022 1023     		movs	r3, #16
 156 0024 0B93     		str	r3, [sp, #44]
  33:Src/main.c    ****   if (HAL_RCC_OscConfig(&RCC_OscInitStruct) != HAL_OK)
 157              		.loc 1 33 3 is_stmt 1 view .LVU37
  34:Src/main.c    ****   {
 158              		.loc 1 34 3 view .LVU38
  34:Src/main.c    ****   {
 159              		.loc 1 34 7 is_stmt 0 view .LVU39
 160 0026 06A8     		add	r0, sp, #24
 161 0028 FFF7FEFF 		bl	HAL_RCC_OscConfig
 162              	.LVL1:
  40:Src/main.c    ****                               |RCC_CLOCKTYPE_PCLK1|RCC_CLOCKTYPE_PCLK2;
 163              		.loc 1 40 3 is_stmt 1 view .LVU40
  40:Src/main.c    ****                               |RCC_CLOCKTYPE_PCLK1|RCC_CLOCKTYPE_PCLK2;
 164              		.loc 1 40 31 is_stmt 0 view .LVU41
 165 002c 0F23     		movs	r3, #15
 166 002e 0193     		str	r3, [sp, #4]
  42:Src/main.c    ****   RCC_ClkInitStruct.AHBCLKDivider = RCC_SYSCLK_DIV1;
 167              		.loc 1 42 3 is_stmt 1 view .LVU42
  42:Src/main.c    ****   RCC_ClkInitStruct.AHBCLKDivider = RCC_SYSCLK_DIV1;
 168              		.loc 1 42 34 is_stmt 0 view .LVU43
 169 0030 0294     		str	r4, [sp, #8]
  43:Src/main.c    ****   RCC_ClkInitStruct.APB1CLKDivider = RCC_HCLK_DIV1;
 170              		.loc 1 43 3 is_stmt 1 view .LVU44
  43:Src/main.c    ****   RCC_ClkInitStruct.APB1CLKDivider = RCC_HCLK_DIV1;
 171              		.loc 1 43 35 is_stmt 0 view .LVU45
 172 0032 0394     		str	r4, [sp, #12]
  44:Src/main.c    ****   RCC_ClkInitStruct.APB2CLKDivider = RCC_HCLK_DIV1;
 173              		.loc 1 44 3 is_stmt 1 view .LVU46
  44:Src/main.c    ****   RCC_ClkInitStruct.APB2CLKDivider = RCC_HCLK_DIV1;
 174              		.loc 1 44 36 is_stmt 0 view .LVU47
 175 0034 0494     		str	r4, [sp, #16]
  45:Src/main.c    **** 
 176              		.loc 1 45 3 is_stmt 1 view .LVU48
  45:Src/main.c    **** 
 177              		.loc 1 45 36 is_stmt 0 view .LVU49
 178 0036 0594     		str	r4, [sp, #20]
  47:Src/main.c    ****   {
 179              		.loc 1 47 3 is_stmt 1 view .LVU50
  47:Src/main.c    ****   {
 180              		.loc 1 47 7 is_stmt 0 view .LVU51
 181 0038 2146     		mov	r1, r4
 182 003a 01A8     		add	r0, sp, #4
 183 003c FFF7FEFF 		bl	HAL_RCC_ClockConfig
 184              	.LVL2:
  51:Src/main.c    **** 
 185              		.loc 1 51 1 view .LVU52
 186 0040 10B0     		add	sp, sp, #64
 187              	.LCFI4:
 188              		.cfi_def_cfa_offset 8
 189              		@ sp needed
 190 0042 10BD     		pop	{r4, pc}
 191              		.cfi_endproc
 192              	.LFE67:
 194              		.section	.text.main,"ax",%progbits
 195              		.align	1
ARM GAS  C:\Users\DELL\AppData\Local\Temp\ccaYVe7z.s 			page 6


 196              		.global	main
 197              		.syntax unified
 198              		.thumb
 199              		.thumb_func
 200              		.fpu softvfp
 202              	main:
 203              	.LFB66:
   9:Src/main.c    **** 
 204              		.loc 1 9 1 is_stmt 1 view -0
 205              		.cfi_startproc
 206              		@ Volatile: function does not return.
 207              		@ args = 0, pretend = 0, frame = 0
 208              		@ frame_needed = 0, uses_anonymous_args = 0
 209 0000 08B5     		push	{r3, lr}
 210              	.LCFI5:
 211              		.cfi_def_cfa_offset 8
 212              		.cfi_offset 3, -8
 213              		.cfi_offset 14, -4
  11:Src/main.c    ****   SystemClock_Config();
 214              		.loc 1 11 3 view .LVU54
 215 0002 FFF7FEFF 		bl	HAL_Init
 216              	.LVL3:
  12:Src/main.c    ****   MX_GPIO_Init();
 217              		.loc 1 12 3 view .LVU55
 218 0006 FFF7FEFF 		bl	SystemClock_Config
 219              	.LVL4:
  13:Src/main.c    ****   ili9341_Init();
 220              		.loc 1 13 3 view .LVU56
 221 000a FFF7FEFF 		bl	MX_GPIO_Init
 222              	.LVL5:
  14:Src/main.c    ****   
 223              		.loc 1 14 3 view .LVU57
 224 000e FFF7FEFF 		bl	ili9341_Init
 225              	.LVL6:
 226              	.L8:
  17:Src/main.c    ****   {
 227              		.loc 1 17 3 discriminator 1 view .LVU58
  20:Src/main.c    **** }
 228              		.loc 1 20 3 discriminator 1 view .LVU59
  17:Src/main.c    ****   {
 229              		.loc 1 17 9 discriminator 1 view .LVU60
 230 0012 FEE7     		b	.L8
 231              		.cfi_endproc
 232              	.LFE66:
 234              		.section	.text.Error_Handler,"ax",%progbits
 235              		.align	1
 236              		.global	Error_Handler
 237              		.syntax unified
 238              		.thumb
 239              		.thumb_func
 240              		.fpu softvfp
 242              	Error_Handler:
 243              	.LFB69:
  68:Src/main.c    **** 
  69:Src/main.c    **** void Error_Handler(void)
  70:Src/main.c    **** {
 244              		.loc 1 70 1 view -0
ARM GAS  C:\Users\DELL\AppData\Local\Temp\ccaYVe7z.s 			page 7


 245              		.cfi_startproc
 246              		@ args = 0, pretend = 0, frame = 0
 247              		@ frame_needed = 0, uses_anonymous_args = 0
 248              		@ link register save eliminated.
  71:Src/main.c    ****   /* USER CODE BEGIN Error_Handler_Debug */
  72:Src/main.c    ****   /* User can add his own implementation to report the HAL error return state */
  73:Src/main.c    **** 
  74:Src/main.c    ****   /* USER CODE END Error_Handler_Debug */
  75:Src/main.c    **** }
 249              		.loc 1 75 1 view .LVU62
 250 0000 7047     		bx	lr
 251              		.cfi_endproc
 252              	.LFE69:
 254              		.comm	LCD_HEIGHT,2,2
 255              		.comm	LCD_WIDTH,2,2
 256              		.text
 257              	.Letext0:
 258              		.file 2 "c:\\program files (x86)\\gnu arm embedded toolchain\\9 2020-q2-update\\arm-none-eabi\\inc
 259              		.file 3 "c:\\program files (x86)\\gnu arm embedded toolchain\\9 2020-q2-update\\arm-none-eabi\\inc
 260              		.file 4 "Drivers/CMSIS/Include/core_cm3.h"
 261              		.file 5 "Drivers/CMSIS/Device/ST/STM32F1xx/Include/system_stm32f1xx.h"
 262              		.file 6 "Drivers/CMSIS/Device/ST/STM32F1xx/Include/stm32f103xb.h"
 263              		.file 7 "c:\\program files (x86)\\gnu arm embedded toolchain\\9 2020-q2-update\\lib\\gcc\\arm-none
 264              		.file 8 "c:\\program files (x86)\\gnu arm embedded toolchain\\9 2020-q2-update\\arm-none-eabi\\inc
 265              		.file 9 "c:\\program files (x86)\\gnu arm embedded toolchain\\9 2020-q2-update\\arm-none-eabi\\inc
 266              		.file 10 "c:\\program files (x86)\\gnu arm embedded toolchain\\9 2020-q2-update\\arm-none-eabi\\in
 267              		.file 11 "Drivers/STM32F1xx_HAL_Driver/Inc/stm32f1xx_hal_rcc.h"
 268              		.file 12 "Drivers/STM32F1xx_HAL_Driver/Inc/stm32f1xx_hal_rcc_ex.h"
 269              		.file 13 "Drivers/STM32F1xx_HAL_Driver/Inc/stm32f1xx_hal_def.h"
 270              		.file 14 "Drivers/STM32F1xx_HAL_Driver/Inc/stm32f1xx_hal.h"
 271              		.file 15 "z-lib/ili9341.h"
 272              		.file 16 "<built-in>"
ARM GAS  C:\Users\DELL\AppData\Local\Temp\ccaYVe7z.s 			page 8

