ARM GAS  C:\Users\DELL\AppData\Local\Temp\ccOqiSQk.s 			page 1


   1              		.cpu cortex-m3
   2              		.eabi_attribute 20, 1
   3              		.eabi_attribute 21, 1
   4              		.eabi_attribute 23, 3
   5              		.eabi_attribute 24, 1
   6              		.eabi_attribute 25, 1
   7              		.eabi_attribute 26, 1
   8              		.eabi_attribute 30, 1
   9              		.eabi_attribute 34, 1
  10              		.eabi_attribute 18, 4
  11              		.file	"spi.c"
  12              		.text
  13              	.Ltext0:
  14              		.cfi_sections	.debug_frame
  15              		.section	.text.SPI1_Init,"ax",%progbits
  16              		.align	1
  17              		.global	SPI1_Init
  18              		.arch armv7-m
  19              		.syntax unified
  20              		.thumb
  21              		.thumb_func
  22              		.fpu softvfp
  24              	SPI1_Init:
  25              	.LFB66:
  26              		.file 1 "z-lib/spi.c"
   1:z-lib/spi.c   **** #include "spi.h"
   2:z-lib/spi.c   **** 
   3:z-lib/spi.c   **** void SPI1_Init(void) {
  27              		.loc 1 3 22 view -0
  28              		.cfi_startproc
  29              		@ args = 0, pretend = 0, frame = 0
  30              		@ frame_needed = 0, uses_anonymous_args = 0
  31 0000 08B5     		push	{r3, lr}
  32              	.LCFI0:
  33              		.cfi_def_cfa_offset 8
  34              		.cfi_offset 3, -8
  35              		.cfi_offset 14, -4
   4:z-lib/spi.c   **** 
   5:z-lib/spi.c   ****     hspi1.Instance = SPI1;
  36              		.loc 1 5 5 view .LVU1
  37              		.loc 1 5 20 is_stmt 0 view .LVU2
  38 0002 0D48     		ldr	r0, .L5
  39 0004 0D4B     		ldr	r3, .L5+4
  40 0006 0360     		str	r3, [r0]
   6:z-lib/spi.c   ****     hspi1.Init.Mode = SPI_MODE_MASTER;
  41              		.loc 1 6 5 is_stmt 1 view .LVU3
  42              		.loc 1 6 21 is_stmt 0 view .LVU4
  43 0008 4FF48273 		mov	r3, #260
  44 000c 4360     		str	r3, [r0, #4]
   7:z-lib/spi.c   ****     hspi1.Init.Direction = SPI_DIRECTION_2LINES;
  45              		.loc 1 7 5 is_stmt 1 view .LVU5
  46              		.loc 1 7 26 is_stmt 0 view .LVU6
  47 000e 0023     		movs	r3, #0
  48 0010 8360     		str	r3, [r0, #8]
   8:z-lib/spi.c   ****     hspi1.Init.DataSize = SPI_DATASIZE_8BIT;
  49              		.loc 1 8 5 is_stmt 1 view .LVU7
  50              		.loc 1 8 25 is_stmt 0 view .LVU8
ARM GAS  C:\Users\DELL\AppData\Local\Temp\ccOqiSQk.s 			page 2


  51 0012 C360     		str	r3, [r0, #12]
   9:z-lib/spi.c   ****     hspi1.Init.CLKPolarity = SPI_POLARITY_LOW;
  52              		.loc 1 9 5 is_stmt 1 view .LVU9
  53              		.loc 1 9 28 is_stmt 0 view .LVU10
  54 0014 0361     		str	r3, [r0, #16]
  10:z-lib/spi.c   ****     hspi1.Init.CLKPhase = SPI_PHASE_1EDGE;
  55              		.loc 1 10 5 is_stmt 1 view .LVU11
  56              		.loc 1 10 25 is_stmt 0 view .LVU12
  57 0016 4361     		str	r3, [r0, #20]
  11:z-lib/spi.c   ****     hspi1.Init.NSS = SPI_NSS_SOFT;
  58              		.loc 1 11 5 is_stmt 1 view .LVU13
  59              		.loc 1 11 20 is_stmt 0 view .LVU14
  60 0018 4FF40072 		mov	r2, #512
  61 001c 8261     		str	r2, [r0, #24]
  12:z-lib/spi.c   ****     hspi1.Init.BaudRatePrescaler = SPI_BAUDRATEPRESCALER_2;
  62              		.loc 1 12 5 is_stmt 1 view .LVU15
  63              		.loc 1 12 34 is_stmt 0 view .LVU16
  64 001e C361     		str	r3, [r0, #28]
  13:z-lib/spi.c   ****     hspi1.Init.FirstBit = SPI_FIRSTBIT_MSB;
  65              		.loc 1 13 5 is_stmt 1 view .LVU17
  66              		.loc 1 13 25 is_stmt 0 view .LVU18
  67 0020 0362     		str	r3, [r0, #32]
  14:z-lib/spi.c   ****     hspi1.Init.TIMode = SPI_TIMODE_DISABLE;
  68              		.loc 1 14 5 is_stmt 1 view .LVU19
  69              		.loc 1 14 23 is_stmt 0 view .LVU20
  70 0022 4362     		str	r3, [r0, #36]
  15:z-lib/spi.c   ****     hspi1.Init.CRCCalculation = SPI_CRCCALCULATION_DISABLE;
  71              		.loc 1 15 5 is_stmt 1 view .LVU21
  72              		.loc 1 15 31 is_stmt 0 view .LVU22
  73 0024 8362     		str	r3, [r0, #40]
  16:z-lib/spi.c   ****     hspi1.Init.CRCPolynomial = 7;
  74              		.loc 1 16 5 is_stmt 1 view .LVU23
  75              		.loc 1 16 30 is_stmt 0 view .LVU24
  76 0026 0723     		movs	r3, #7
  77 0028 C362     		str	r3, [r0, #44]
  17:z-lib/spi.c   ****     if (HAL_SPI_Init(&hspi1) != HAL_OK)
  78              		.loc 1 17 5 is_stmt 1 view .LVU25
  79              		.loc 1 17 9 is_stmt 0 view .LVU26
  80 002a FFF7FEFF 		bl	HAL_SPI_Init
  81              	.LVL0:
  82              		.loc 1 17 8 view .LVU27
  83 002e 00B9     		cbnz	r0, .L4
  84              	.L1:
  18:z-lib/spi.c   ****     {
  19:z-lib/spi.c   ****         Error_Handler();
  20:z-lib/spi.c   ****     }
  21:z-lib/spi.c   ****     
  22:z-lib/spi.c   **** }
  85              		.loc 1 22 1 view .LVU28
  86 0030 08BD     		pop	{r3, pc}
  87              	.L4:
  19:z-lib/spi.c   ****     }
  88              		.loc 1 19 9 is_stmt 1 view .LVU29
  89 0032 FFF7FEFF 		bl	Error_Handler
  90              	.LVL1:
  91              		.loc 1 22 1 is_stmt 0 view .LVU30
  92 0036 FBE7     		b	.L1
ARM GAS  C:\Users\DELL\AppData\Local\Temp\ccOqiSQk.s 			page 3


  93              	.L6:
  94              		.align	2
  95              	.L5:
  96 0038 00000000 		.word	hspi1
  97 003c 00300140 		.word	1073819648
  98              		.cfi_endproc
  99              	.LFE66:
 101              		.section	.text.HAL_SPI_MspInit,"ax",%progbits
 102              		.align	1
 103              		.global	HAL_SPI_MspInit
 104              		.syntax unified
 105              		.thumb
 106              		.thumb_func
 107              		.fpu softvfp
 109              	HAL_SPI_MspInit:
 110              	.LVL2:
 111              	.LFB67:
  23:z-lib/spi.c   **** 
  24:z-lib/spi.c   **** void HAL_SPI_MspInit(SPI_HandleTypeDef* spiHandle){
 112              		.loc 1 24 51 is_stmt 1 view -0
 113              		.cfi_startproc
 114              		@ args = 0, pretend = 0, frame = 24
 115              		@ frame_needed = 0, uses_anonymous_args = 0
  25:z-lib/spi.c   **** 
  26:z-lib/spi.c   ****     GPIO_InitTypeDef GPIO_InitStruct;
 116              		.loc 1 26 5 view .LVU32
  27:z-lib/spi.c   ****     if(spiHandle->Instance==SPI1) {
 117              		.loc 1 27 5 view .LVU33
 118              		.loc 1 27 17 is_stmt 0 view .LVU34
 119 0000 0268     		ldr	r2, [r0]
 120              		.loc 1 27 7 view .LVU35
 121 0002 104B     		ldr	r3, .L14
 122 0004 9A42     		cmp	r2, r3
 123 0006 00D0     		beq	.L13
 124 0008 7047     		bx	lr
 125              	.L13:
  24:z-lib/spi.c   **** 
 126              		.loc 1 24 51 view .LVU36
 127 000a 00B5     		push	{lr}
 128              	.LCFI1:
 129              		.cfi_def_cfa_offset 4
 130              		.cfi_offset 14, -4
 131 000c 87B0     		sub	sp, sp, #28
 132              	.LCFI2:
 133              		.cfi_def_cfa_offset 32
  28:z-lib/spi.c   ****         __HAL_RCC_SPI1_CLK_ENABLE();
 134              		.loc 1 28 9 is_stmt 1 view .LVU37
 135              	.LBB2:
 136              		.loc 1 28 9 view .LVU38
 137              		.loc 1 28 9 view .LVU39
 138 000e 03F56043 		add	r3, r3, #57344
 139 0012 9A69     		ldr	r2, [r3, #24]
 140 0014 42F48052 		orr	r2, r2, #4096
 141 0018 9A61     		str	r2, [r3, #24]
 142              		.loc 1 28 9 view .LVU40
 143 001a 9B69     		ldr	r3, [r3, #24]
 144 001c 03F48053 		and	r3, r3, #4096
ARM GAS  C:\Users\DELL\AppData\Local\Temp\ccOqiSQk.s 			page 4


 145 0020 0193     		str	r3, [sp, #4]
 146              		.loc 1 28 9 view .LVU41
 147 0022 019B     		ldr	r3, [sp, #4]
 148              	.LBE2:
 149              		.loc 1 28 9 view .LVU42
  29:z-lib/spi.c   ****     
  30:z-lib/spi.c   ****         /**SPI1 GPIO Configuration    
  31:z-lib/spi.c   ****         PA5     ------> SPI5_SCK
  32:z-lib/spi.c   ****         PA6     ------> SPI5_MISO
  33:z-lib/spi.c   ****         PA7     ------> SPI5_MOSI 
  34:z-lib/spi.c   ****         */
  35:z-lib/spi.c   ****         GPIO_InitStruct.Pin = GPIO_PIN_5|GPIO_PIN_6|GPIO_PIN_7;
 150              		.loc 1 35 9 view .LVU43
 151              		.loc 1 35 29 is_stmt 0 view .LVU44
 152 0024 E023     		movs	r3, #224
 153 0026 0293     		str	r3, [sp, #8]
  36:z-lib/spi.c   ****         GPIO_InitStruct.Mode = GPIO_MODE_AF_PP;
 154              		.loc 1 36 9 is_stmt 1 view .LVU45
 155              		.loc 1 36 30 is_stmt 0 view .LVU46
 156 0028 0223     		movs	r3, #2
 157 002a 0393     		str	r3, [sp, #12]
  37:z-lib/spi.c   ****         GPIO_InitStruct.Pull = GPIO_NOPULL;
 158              		.loc 1 37 9 is_stmt 1 view .LVU47
 159              		.loc 1 37 30 is_stmt 0 view .LVU48
 160 002c 0023     		movs	r3, #0
 161 002e 0493     		str	r3, [sp, #16]
  38:z-lib/spi.c   ****         GPIO_InitStruct.Speed = GPIO_SPEED_FREQ_HIGH;
 162              		.loc 1 38 9 is_stmt 1 view .LVU49
 163              		.loc 1 38 31 is_stmt 0 view .LVU50
 164 0030 0323     		movs	r3, #3
 165 0032 0593     		str	r3, [sp, #20]
  39:z-lib/spi.c   ****         HAL_GPIO_Init(GPIOA, &GPIO_InitStruct);
 166              		.loc 1 39 9 is_stmt 1 view .LVU51
 167 0034 02A9     		add	r1, sp, #8
 168 0036 0448     		ldr	r0, .L14+4
 169              	.LVL3:
 170              		.loc 1 39 9 is_stmt 0 view .LVU52
 171 0038 FFF7FEFF 		bl	HAL_GPIO_Init
 172              	.LVL4:
  40:z-lib/spi.c   ****     }
  41:z-lib/spi.c   **** }...
 173              		.loc 1 41 1 view .LVU53
 174 003c 07B0     		add	sp, sp, #28
 175              	.LCFI3:
 176              		.cfi_def_cfa_offset 4
 177              		@ sp needed
 178 003e 5DF804FB 		ldr	pc, [sp], #4
 179              	.L15:
 180 0042 00BF     		.align	2
 181              	.L14:
 182 0044 00300140 		.word	1073819648
 183 0048 00080140 		.word	1073809408
 184              		.cfi_endproc
 185              	.LFE67:
 187              		.comm	hspi1,88,4
 188              		.text
 189              	.Letext0:
ARM GAS  C:\Users\DELL\AppData\Local\Temp\ccOqiSQk.s 			page 5


 190              		.file 2 "c:\\program files (x86)\\gnu arm embedded toolchain\\9 2020-q2-update\\arm-none-eabi\\inc
 191              		.file 3 "c:\\program files (x86)\\gnu arm embedded toolchain\\9 2020-q2-update\\arm-none-eabi\\inc
 192              		.file 4 "Drivers/CMSIS/Include/core_cm3.h"
 193              		.file 5 "Drivers/CMSIS/Device/ST/STM32F1xx/Include/system_stm32f1xx.h"
 194              		.file 6 "Drivers/CMSIS/Device/ST/STM32F1xx/Include/stm32f103xb.h"
 195              		.file 7 "c:\\program files (x86)\\gnu arm embedded toolchain\\9 2020-q2-update\\lib\\gcc\\arm-none
 196              		.file 8 "c:\\program files (x86)\\gnu arm embedded toolchain\\9 2020-q2-update\\arm-none-eabi\\inc
 197              		.file 9 "c:\\program files (x86)\\gnu arm embedded toolchain\\9 2020-q2-update\\arm-none-eabi\\inc
 198              		.file 10 "c:\\program files (x86)\\gnu arm embedded toolchain\\9 2020-q2-update\\arm-none-eabi\\in
 199              		.file 11 "Drivers/STM32F1xx_HAL_Driver/Inc/stm32f1xx_hal_def.h"
 200              		.file 12 "Drivers/STM32F1xx_HAL_Driver/Inc/stm32f1xx_hal_gpio.h"
 201              		.file 13 "Drivers/STM32F1xx_HAL_Driver/Inc/stm32f1xx_hal_dma.h"
 202              		.file 14 "Drivers/STM32F1xx_HAL_Driver/Inc/stm32f1xx_hal_spi.h"
 203              		.file 15 "Drivers/STM32F1xx_HAL_Driver/Inc/stm32f1xx_hal.h"
 204              		.file 16 "z-lib/spi.h"
 205              		.file 17 "Inc/main.h"
ARM GAS  C:\Users\DELL\AppData\Local\Temp\ccOqiSQk.s 			page 6

